(lp0
S'poi'
p1
aS'salary'
p2
aS'total_payments'
p3
aS'exercised_stock_options'
p4
aS'restricted_stock'
p5
aS'total_stock_value'
p6
aS'to_poi_email'
p7
aS'from_poi_email'
p8
aS'bonus'
p9
aS'shared_receipt_with_poi'
p10
aS'expenses'
p11
a.